


ARM Macro Assembler    Page 1 


    1 00000000                 AREA             BubbleSort, CODE, READONLY
    2 00000000                 IMPORT           main
    3 00000000                 EXPORT           start
    4 00000000         
    5 00000000         ;.0
    6 00000000         start
    7 00000000 E59F406C        LDR              R4, =array  ; address of array
    8 00000004 E59F506C        LDR              R5, =arrayN ; address of array 
                                                            size
    9 00000008 E5955000        LDR              R5, [R5]    ; load array size
   10 0000000C E1A00004        MOV              R0,     R4  ;to pass array addr
                                                            ess as parameter
   11 00000010         
   12 00000010         
   13 00000010         
   14 00000010         ; sort program
   15 00000010 E3550000        CMP              R5,     #0  ;to prevent 0 eleme
                                                            nt arrays
   16 00000014 0A00000F        BEQ              stop
   17 00000018         do
   18 00000018 E3A06000        LDR              R6, = 0     ;swapped = false
   19 0000001C E3A07000        LDR              R7, = 0     ;index
   20 00000020         for
   21 00000020 E1A01007        MOV              R1,     R7  ; index -1
   22 00000024 E7948101        LDR              R8,     [R4,    R1,     LSL    
 #2] 
                                                            ;array [index-1]
   23 00000028         
   24 00000028 E2877001        ADD              R7,     R7,     #1 ;i++
   25 0000002C E1570005        CMP              R7,     R5
   26 00000030 0A000006        BEQ              while       ;for (i<N)
   27 00000034         
   28 00000034 E1A02007        MOV              R2,     R7  ; index       
   29 00000038 E7949102        LDR              R9,     [R4,    R2,     LSL    
 #2] 
                                                            ;array[index]
   30 0000003C         
   31 0000003C E1580009        CMP              R8,     R9  ;compare array[inde
                                                            x-1] to array[index
                                                            ]
   32 00000040 9AFFFFF6        BLS              for         ;if [index -1] less
                                                             than [index] repea
                                                            t algorithm
   33 00000044         
   34 00000044         ;subroutine       
   35 00000044 EB000004        BL               swap
   36 00000048 E3A06001        LDR              R6, =    1  ;swapped = true
   37 0000004C EAFFFFF3        b                for
   38 00000050         while
   39 00000050 E3560000        CMP              R6,     #0  ;checks if any swap
                                                            s have occured
   40 00000054 1AFFFFEF        BNE              do
   41 00000058 EAFFFFFE 
                       stop    B                stop
   42 0000005C         
   43 0000005C         ; swap subroutine
   44 0000005C         ; swaps the position of two indexes of a 2D array
   45 0000005C         ; R0 = address of array start   R1 = index i    R2 = ind
                       ex j



ARM Macro Assembler    Page 2 


   46 0000005C         ;return void
   47 0000005C         swap
   48 0000005C E92D4030        STMFD            SP!,     {R4,R5,LR}
   49 00000060 E7904101        LDR              R4,     [R0,    R1,     LSL    
 #2] 
                                                            ;loads element 2
   50 00000064 E7905102        LDR              R5,     [R0,    R2,     LSL    
 #2] 
                                                            ;loads element 7
   51 00000068         
   52 00000068 E7805101        STR              R5,     [R0,    R1,     LSL    
 #2]
   53 0000006C E7804102        STR              R4,     [R0,    R2,     LSL    
 #2] 
                                                            ;swaps elements 
   54 00000070 E8BD8030        LDMFD            SP!,     {PC,R4,R5} 
                                                            ;end of subroutine
   55 00000074         
   56 00000074 00000000 
              00000000         AREA             TestArray, DATA, READWRITE
   57 00000000         
   58 00000000         ; Array Size
   59 00000000 000003E8 
                       arrayN  DCD              1000
   60 00000004         
   61 00000004         ; Array Elements
   62 00000004 00000022 
              0000004D 
              00000051 
              00000060 
              00000051 
              00000051 
              0000003F 
              00000045 
              0000004C 
              00000028 
              00000015 
              00000038 
              00000012 
              00000055 
              00000040 
              00000021 
              0000001E 
              00000038 
              0000004C 
              00000043 
              00000009 
              0000002F 
              00000064 
              00000001 
              0000005F 
              00000013 
              0000002F 
              0000005B 
              00000034 
              00000019 
              00000016 
              00000061 
              00000064 



ARM Macro Assembler    Page 3 


              00000021 
              0000002E 
              0000001A 
              00000052 
              0000003B 
              00000003 
              00000044 
              00000043 
              00000024 
              00000011 
              0000001F 
              0000003C 
              0000000C 
              00000014 
              00000010 
              00000007 
              0000001F 
              0000005F 
              00000032 
              00000049 
              00000021 
              00000050 
              00000035 
              00000022 
              00000005 
              00000039 
              00000027 
              0000003E 
              00000060 
              00000009 
              00000002 
              00000040 
              00000032 
              00000042 
              00000019 
              00000006 
              0000004D 
              0000001F 
              00000056 
              00000040 
              0000001F 
              0000001B 
              00000047 
              00000059 
              00000051 
              00000049 
              00000015 
              0000002D 
              00000036 
              0000005A 
              00000061 
              00000050 
              0000002B 
              00000059 
              00000038 
              00000012 
              0000004F 
              00000015 
              00000030 



ARM Macro Assembler    Page 4 


              00000056 
              0000001E 
              0000001F 
              0000004E 
              00000040 
              00000019 
              00000021 
              00000016 
              0000005B 
              00000035 
              0000000D 
              0000001F 
              0000005A 
              00000001 
              00000003 
              0000004E 
              0000000B 
              00000044 
              0000003C 
              00000016 
              0000004D 
              0000000F 
              00000062 
              00000050 
              00000035 
              0000000C 
              00000049 
              00000040 
              00000020 
              00000016 
              00000013 
              00000048 
              00000026 
              00000052 
              00000027 
              00000058 
              00000001 
              00000030 
              00000009 
              00000043 
              00000026 
              00000049 
              00000055 
              0000000A 
              00000061 
              00000063 
              00000016 
              0000005A 
              0000002F 
              0000003F 
              00000022 
              0000005A 
              00000018 
              00000041 
              00000030 
              00000014 
              0000001A 
              0000002E 
              00000055 



ARM Macro Assembler    Page 5 


              00000039 
              0000005B 
              00000063 
              00000027 
              00000053 
              0000003A 
              0000005C 
              00000023 
              0000001C 
              00000038 
              00000019 
              00000051 
              0000000B 
              00000007 
              00000050 
              0000004E 
              0000005B 
              00000009 
              00000022 
              00000010 
              00000045 
              00000039 
              00000033 
              00000028 
              00000061 
              00000052 
              00000054 
              00000024 
              0000000B 
              0000001C 
              00000060 
              0000002F 
              00000003 
              0000000E 
              0000000F 
              00000016 
              00000015 
              00000038 
              00000033 
              00000031 
              0000000E 
              00000053 
              00000010 
              00000036 
              00000021 
              0000002D 
              0000000E 
              0000004B 
              0000005A 
              00000005 
              00000018 
              00000005 
              0000002B 
              00000033 
              00000005 
              00000039 
              0000005A 
              00000032 
              00000027 



ARM Macro Assembler    Page 6 


              00000032 
              0000000A 
              0000002F 
              0000005A 
              0000002F 
              0000005C 
              00000064 
              0000005D 
              0000003C 
              00000051 
              00000029 
              00000031 
              00000030 
              00000049 
              00000024 
              00000059 
              00000061 
              00000058 
              0000003A 
              00000049 
              00000036 
              00000024 
              00000063 
              00000018 
              0000000B 
              00000048 
              00000040 
              0000005D 
              00000036 
              00000062 
              00000055 
              00000025 
              00000043 
              00000026 
              00000026 
              0000002F 
              0000000C 
              0000005A 
              0000000C 
              0000002B 
              00000009 
              0000005E 
              00000029 
              00000038 
              00000006 
              00000031 
              00000056 
              00000005 
              0000000B 
              00000011 
              00000061 
              00000061 
              00000026 
              00000033 
              00000040 
              00000026 
              00000060 
              00000031 
              00000062 



ARM Macro Assembler    Page 7 


              00000035 
              0000004A 
              00000003 
              00000044 
              00000017 
              00000030 
              00000038 
              00000054 
              0000001A 
              00000039 
              00000038 
              00000053 
              0000002E 
              0000000A 
              00000038 
              0000000A 
              0000001C 
              0000000D 
              00000017 
              00000053 
              00000020 
              0000004F 
              00000043 
              00000051 
              0000004F 
              00000043 
              00000060 
              0000000D 
              00000002 
              00000009 
              00000047 
              0000005E 
              00000004 
              00000057 
              00000016 
              00000054 
              0000004F 
              00000016 
              00000037 
              00000008 
              00000007 
              0000000C 
              00000045 
              0000003C 
              0000005F 
              0000003C 
              00000061 
              00000053 
              00000016 
              0000005B 
              00000004 
              00000044 
              0000002D 
              00000052 
              00000020 
              00000018 
              0000001C 
              00000014 
              00000040 



ARM Macro Assembler    Page 8 


              0000000B 
              00000029 
              00000038 
              00000032 
              0000005B 
              00000054 
              00000038 
              0000005C 
              0000005E 
              00000022 
              00000004 
              00000039 
              0000001A 
              00000046 
              00000024 
              00000036 
              0000005E 
              00000021 
              00000046 
              0000002E 
              00000056 
              0000000B 
              00000041 
              0000000B 
              00000057 
              00000014 
              00000013 
              0000004F 
              00000012 
              00000057 
              00000038 
              00000027 
              00000054 
              00000001 
              0000003C 
              00000015 
              00000033 
              00000048 
              0000000D 
              00000006 
              0000002E 
              0000002C 
              00000037 
              00000010 
              0000000B 
              0000004A 
              00000052 
              00000051 
              00000060 
              00000028 
              0000004E 
              00000041 
              00000041 
              00000027 
              00000057 
              00000025 
              0000003F 
              0000004E 
              0000004F 



ARM Macro Assembler    Page 9 


              00000054 
              00000009 
              0000005E 
              0000005D 
              00000038 
              00000010 
              00000062 
              0000004F 
              0000005C 
              00000025 
              0000005C 
              00000063 
              00000033 
              0000004C 
              0000001C 
              00000011 
              0000002C 
              0000005C 
              0000000F 
              0000000A 
              00000009 
              00000031 
              0000001E 
              0000000C 
              00000026 
              00000061 
              00000023 
              00000009 
              0000004C 
              0000000D 
              0000004F 
              00000031 
              0000001A 
              0000000C 
              00000040 
              00000013 
              00000062 
              00000004 
              0000002F 
              00000011 
              00000036 
              0000000E 
              00000030 
              00000057 
              00000024 
              0000005A 
              00000032 
              0000003D 
              00000059 
              00000044 
              00000017 
              0000002E 
              0000001F 
              0000003D 
              00000036 
              00000022 
              00000041 
              00000057 
              00000003 



ARM Macro Assembler    Page 10 


              00000047 
              00000017 
              0000005A 
              00000056 
              00000058 
              00000064 
              0000003B 
              00000046 
              0000004F 
              00000042 
              00000049 
              0000005F 
              00000047 
              00000013 
              0000003A 
              00000043 
              00000010 
              00000056 
              00000050 
              00000031 
              0000001E 
              00000042 
              0000001A 
              0000003A 
              00000064 
              00000026 
              0000004F 
              00000004 
              00000037 
              00000040 
              00000025 
              00000041 
              0000005A 
              00000045 
              00000036 
              00000025 
              0000003F 
              00000037 
              00000029 
              0000002E 
              00000003 
              0000003D 
              0000000C 
              00000039 
              00000037 
              0000000D 
              00000063 
              00000028 
              00000009 
              0000001F 
              0000003E 
              00000046 
              00000022 
              0000004F 
              00000031 
              00000054 
              0000003D 
              00000022 
              0000002F 



ARM Macro Assembler    Page 11 


              0000004A 
              00000064 
              0000004C 
              0000001E 
              00000042 
              00000011 
              00000064 
              0000004E 
              00000015 
              00000028 
              0000002E 
              00000026 
              00000048 
              00000033 
              00000029 
              0000004D 
              00000056 
              00000057 
              00000033 
              00000030 
              0000000E 
              00000040 
              00000025 
              0000001B 
              0000001C 
              00000010 
              00000054 
              00000040 
              0000005F 
              00000015 
              0000004B 
              00000051 
              00000054 
              0000005E 
              00000050 
              0000002C 
              00000036 
              0000002D 
              00000036 
              0000000C 
              00000059 
              00000057 
              0000005D 
              00000044 
              00000017 
              00000013 
              00000010 
              00000007 
              0000002C 
              00000051 
              00000055 
              00000002 
              00000006 
              00000050 
              00000021 
              0000000F 
              0000002A 
              0000001A 
              00000059 



ARM Macro Assembler    Page 12 


              00000061 
              00000002 
              0000001E 
              00000053 
              00000044 
              00000051 
              00000047 
              00000064 
              00000033 
              0000001E 
              00000030 
              00000051 
              00000025 
              0000001B 
              00000032 
              0000001C 
              0000002C 
              00000009 
              00000051 
              0000003C 
              00000051 
              00000024 
              00000007 
              0000004C 
              0000005A 
              00000011 
              0000005C 
              0000004E 
              00000001 
              00000001 
              00000054 
              00000014 
              00000005 
              0000005C 
              00000053 
              00000041 
              00000016 
              00000022 
              00000030 
              00000043 
              00000052 
              0000000C 
              0000003C 
              0000005C 
              0000001A 
              00000011 
              00000034 
              00000040 
              0000003F 
              00000063 
              0000002C 
              0000003D 
              00000051 
              00000010 
              00000011 
              00000007 
              0000002D 
              0000002E 
              00000061 



ARM Macro Assembler    Page 13 


              00000042 
              0000002A 
              00000025 
              00000064 
              00000033 
              00000032 
              00000055 
              0000002B 
              00000042 
              00000017 
              00000061 
              0000000E 
              00000002 
              0000002E 
              00000057 
              00000052 
              0000002F 
              0000001F 
              00000049 
              00000058 
              0000000A 
              00000051 
              0000001E 
              00000018 
              00000038 
              00000048 
              00000059 
              0000004D 
              0000001A 
              00000045 
              0000002A 
              00000023 
              00000035 
              0000000C 
              00000058 
              00000050 
              0000001A 
              0000000C 
              00000058 
              00000020 
              00000026 
              00000032 
              00000056 
              00000015 
              00000047 
              0000000A 
              00000034 
              00000043 
              00000023 
              0000004E 
              00000015 
              00000052 
              0000005C 
              0000001A 
              0000000C 
              0000000F 
              0000002B 
              00000047 
              0000003D 



ARM Macro Assembler    Page 14 


              0000003E 
              0000001F 
              0000002C 
              0000000A 
              00000042 
              00000062 
              0000000C 
              0000003A 
              0000001B 
              0000002A 
              00000054 
              00000045 
              00000008 
              00000059 
              00000061 
              00000061 
              00000061 
              0000000A 
              0000004F 
              00000054 
              00000041 
              00000056 
              00000008 
              00000002 
              0000005F 
              0000004B 
              0000000C 
              00000059 
              00000037 
              00000003 
              00000017 
              0000000F 
              0000002D 
              00000023 
              00000027 
              0000000D 
              0000002E 
              00000023 
              00000020 
              00000016 
              0000002D 
              00000043 
              0000002F 
              0000001E 
              0000003D 
              00000023 
              0000000A 
              0000005C 
              0000003E 
              00000007 
              0000000F 
              00000049 
              00000023 
              0000002E 
              0000004F 
              00000056 
              00000060 
              00000027 
              00000024 



ARM Macro Assembler    Page 15 


              00000038 
              00000018 
              00000026 
              0000003D 
              0000004D 
              00000044 
              0000001E 
              0000003B 
              0000000D 
              00000038 
              0000001A 
              00000016 
              00000056 
              00000043 
              0000003B 
              0000003B 
              0000003E 
              0000000B 
              00000030 
              00000005 
              00000018 
              0000005F 
              0000002F 
              00000053 
              00000029 
              00000027 
              00000044 
              00000034 
              00000050 
              00000043 
              0000001B 
              0000002C 
              00000023 
              00000046 
              00000025 
              0000004C 
              0000003B 
              00000019 
              00000031 
              0000001D 
              00000055 
              0000004B 
              0000000F 
              00000046 
              00000027 
              00000033 
              00000027 
              00000008 
              00000058 
              00000054 
              00000010 
              0000000A 
              00000003 
              00000049 
              00000054 
              00000062 
              00000031 
              00000014 
              00000062 



ARM Macro Assembler    Page 16 


              00000053 
              00000017 
              0000005F 
              0000001E 
              0000004F 
              00000039 
              00000034 
              00000021 
              00000046 
              00000017 
              0000002F 
              00000001 
              00000005 
              00000016 
              00000033 
              00000043 
              0000002E 
              0000000B 
              0000002F 
              00000054 
              0000000B 
              00000028 
              0000004F 
              0000001D 
              00000027 
              0000001A 
              00000057 
              0000001D 
              00000064 
              0000004F 
              00000058 
              00000031 
              00000010 
              0000001B 
              0000005E 
              0000003A 
              0000004E 
              00000022 
              00000026 
              00000003 
              00000009 
              0000002E 
              00000047 
              00000051 
              0000001B 
              00000047 
              0000004B 
              0000003A 
              0000000C 
              0000001B 
              00000014 
              00000056 
              00000027 
              0000002B 
              00000001 
              00000022 
              00000028 
              0000004A 
              00000009 



ARM Macro Assembler    Page 17 


              00000049 
              00000008 
              00000026 
              00000027 
              00000004 
              00000050 
              0000005D 
              00000024 
              00000026 
              00000061 
              0000003D 
              00000051 
              0000005B 
              00000005 
              0000004C 
              0000000F 
              00000037 
              0000004C 
              00000060 
              0000004F 
              00000053 
              0000004A 
              00000036 
              00000005 
              00000044 
              00000007 
              00000021 
              00000051 
              00000038 
              0000004D 
              0000001D 
              00000007 
              0000003A 
              00000057 
              00000026 
              0000000E 
              00000040 
              00000003 
              00000058 
              00000043 
              00000049 
              00000032 
              00000010 
              00000045 
              00000030 
              0000002A 
              00000019 
              00000003 
              0000000C 
              00000048 
              00000032 
              0000005D 
              00000006 
              00000060 
              00000050 
              00000005 
              00000046 
              00000042 
              0000001A 



ARM Macro Assembler    Page 18 


              00000023 
              00000049 
              0000005A 
              00000028 
              00000046 
              00000044 
              00000062 
              0000005A 
              0000005F 
              00000030 
              00000028 
              0000002C 
              00000026 
              00000024 
              00000040 
              00000009 
              00000035 
              00000016 
              0000000F 
              00000054 
              00000051 
              00000022 
              00000023 
              00000022 
              00000038 
              00000049 
              00000039 
              0000005C 
              0000000F 
              0000003C 
              0000005A 
              00000058 
              0000003F 
              0000000C 
              00000019 
              00000003 
              00000007 
              0000003B 
              00000063 
              00000034 
              0000000D 
              0000000C 
              00000009 
              00000050 
              00000032 
              0000002A 
              0000005E 
              0000004E 
              0000003F 
              00000056 
              00000019 
              00000011 
              00000001 
              00000009 
              00000031 
              00000061 
              00000014 
              0000005D 
              00000061 



ARM Macro Assembler    Page 19 


              00000018 
              00000046 
              00000032 
              0000002B 
              0000001C 
              00000044 
              00000014 
              00000038 
              00000009 
              00000012 
              00000040 
              00000056 
              00000057 
              00000030 
              0000000D 
              0000004C 
              00000022 
              00000054 
              00000047 
              00000018 
              0000002A 
              0000004E 
              0000003B array   DCD              34, 77, 81, 96, 81, 81, 63, 69,
 76, 40, 21, 56, 18, 85, 64, 33, 30, 56, 76, 67, 9, 47, 100, 1, 95, 19, 47, 91,
 52, 25, 22, 97, 100, 33, 46, 26, 82, 59, 3, 68, 67, 36, 17, 31, 60, 12, 20, 16
, 7, 31, 95, 50, 73, 33, 80, 53, 34, 5, 57, 39, 62, 96, 9, 2, 64, 50, 66, 25, 6
, 77, 31, 86, 64, 31, 27, 71, 89, 81, 73, 21, 45, 54, 90, 97, 80, 43, 89, 56, 1
8, 79, 21, 48, 86, 30, 31, 78, 64, 25, 33, 22, 91, 53, 13, 31, 90, 1, 3, 78, 11
, 68, 60, 22, 77, 15, 98, 80, 53, 12, 73, 64, 32, 22, 19, 72, 38, 82, 39, 88, 1
, 48, 9, 67, 38, 73, 85, 10, 97, 99, 22, 90, 47, 63, 34, 90, 24, 65, 48, 20, 26
, 46, 85, 57, 91, 99, 39, 83, 58, 92, 35, 28, 56, 25, 81, 11, 7, 80, 78, 91, 9,
 34, 16, 69, 57, 51, 40, 97, 82, 84, 36, 11, 28, 96, 47, 3, 14, 15, 22, 21, 56,
 51, 49, 14, 83, 16, 54, 33, 45, 14, 75, 90, 5, 24, 5, 43, 51, 5, 57, 90, 50, 3
9, 50, 10, 47, 90, 47, 92, 100, 93, 60, 81, 41, 49, 48, 73, 36, 89, 97, 88, 58,
 73, 54, 36, 99, 24, 11, 72, 64, 93, 54, 98, 85, 37, 67, 38, 38, 47, 12, 90, 12
, 43, 9, 94, 41, 56, 6, 49, 86, 5, 11, 17, 97, 97, 38, 51, 64, 38, 96, 49, 98, 
53, 74, 3, 68, 23, 48, 56, 84, 26, 57, 56, 83, 46, 10, 56, 10, 28, 13, 23, 83, 
32, 79, 67, 81, 79, 67, 96, 13, 2, 9, 71, 94, 4, 87, 22, 84, 79, 22, 55, 8, 7, 
12, 69, 60, 95, 60, 97, 83, 22, 91, 4, 68, 45, 82, 32, 24, 28, 20, 64, 11, 41, 
56, 50, 91, 84, 56, 92, 94, 34, 4, 57, 26, 70, 36, 54, 94, 33, 70, 46, 86, 11, 
65, 11, 87, 20, 19, 79, 18, 87, 56, 39, 84, 1, 60, 21, 51, 72, 13, 6, 46, 44, 5
5, 16, 11, 74, 82, 81, 96, 40, 78, 65, 65, 39, 87, 37, 63, 78, 79, 84, 9, 94, 9
3, 56, 16, 98, 79, 92, 37, 92, 99, 51, 76, 28, 17, 44, 92, 15, 10, 9, 49, 30, 1
2, 38, 97, 35, 9, 76, 13, 79, 49, 26, 12, 64, 19, 98, 4, 47, 17, 54, 14, 48, 87
, 36, 90, 50, 61, 89, 68, 23, 46, 31, 61, 54, 34, 65, 87, 3, 71, 23, 90, 86, 88
, 100, 59, 70, 79, 66, 73, 95, 71, 19, 58, 67, 16, 86, 80, 49, 30, 66, 26, 58, 
100, 38, 79, 4, 55, 64, 37, 65, 90, 69, 54, 37, 63, 55, 41, 46, 3, 61, 12, 57, 
55, 13, 99, 40, 9, 31, 62, 70, 34, 79, 49, 84, 61, 34, 47, 74, 100, 76, 30, 66,
 17, 100, 78, 21, 40, 46, 38, 72, 51, 41, 77, 86, 87, 51, 48, 14, 64, 37, 27, 2
8, 16, 84, 64, 95, 21, 75, 81, 84, 94, 80, 44, 54, 45, 54, 12, 89, 87, 93, 68, 
23, 19, 16, 7, 44, 81, 85, 2, 6, 80, 33, 15, 42, 26, 89, 97, 2, 30, 83, 68, 81,
 71, 100, 51, 30, 48, 81, 37, 27, 50, 28, 44, 9, 81, 60, 81, 36, 7, 76, 90, 17,
 92, 78, 1, 1, 84, 20, 5, 92, 83, 65, 22, 34, 48, 67, 82, 12, 60, 92, 26, 17, 5
2, 64, 63, 99, 44, 61, 81, 16, 17, 7, 45, 46, 97, 66, 42, 37, 100, 51, 50, 85, 
43, 66, 23, 97, 14, 2, 46, 87, 82, 47, 31, 73, 88, 10, 81, 30, 24, 56, 72, 89, 
77, 26, 69, 42, 35, 53, 12, 88, 80, 26, 12, 88, 32, 38, 50, 86, 21, 71, 10, 52,
 67, 35, 78, 21, 82, 92, 26, 12, 15, 43, 71, 61, 62, 31, 44, 10, 66, 98, 12, 58
, 27, 42, 84, 69, 8, 89, 97, 97, 97, 10, 79, 84, 65, 86, 8, 2, 95, 75, 12, 89, 
55, 3, 23, 15, 45, 35, 39, 13, 46, 35, 32, 22, 45, 67, 47, 30, 61, 35, 10, 92, 



ARM Macro Assembler    Page 20 


62, 7, 15, 73, 35, 46, 79, 86, 96, 39, 36, 56, 24, 38, 61, 77, 68, 30, 59, 13, 
56, 26, 22, 86, 67, 59, 59, 62, 11, 48, 5, 24, 95, 47, 83, 41, 39, 68, 52, 80, 
67, 27, 44, 35, 70, 37, 76, 59, 25, 49, 29, 85, 75, 15, 70, 39, 51, 39, 8, 88, 
84, 16, 10, 3, 73, 84, 98, 49, 20, 98, 83, 23, 95, 30, 79, 57, 52, 33, 70, 23, 
47, 1, 5, 22, 51, 67, 46, 11, 47, 84, 11, 40, 79, 29, 39, 26, 87, 29, 100, 79, 
88, 49, 16, 27, 94, 58, 78, 34, 38, 3, 9, 46, 71, 81, 27, 71, 75, 58, 12, 27, 2
0, 86, 39, 43, 1, 34, 40, 74, 9, 73, 8, 38, 39, 4, 80, 93, 36, 38, 97, 61, 81, 
91, 5, 76, 15, 55, 76, 96, 79, 83, 74, 54, 5, 68, 7, 33, 81, 56, 77, 29, 7, 58,
 87, 38, 14, 64, 3, 88, 67, 73, 50, 16, 69, 48, 42, 25, 3, 12, 72, 50, 93, 6, 9
6, 80, 5, 70, 66, 26, 35, 73, 90, 40, 70, 68, 98, 90, 95, 48, 40, 44, 38, 36, 6
4, 9, 53, 22, 15, 84, 81, 34, 35, 34, 56, 73, 57, 92, 15, 60, 90, 88, 63, 12, 2
5, 3, 7, 59, 99, 52, 13, 12, 9, 80, 50, 42, 94, 78, 63, 86, 25, 17, 1, 9, 49, 9
7, 20, 93, 97, 24, 70, 50, 43, 28, 68, 20, 56, 9, 18, 64, 86, 87, 48, 13, 76, 3
4, 84, 71, 24, 42, 78, 59
   63 00000FA4         
   64 00000FA4         ;array DCD 33,17,18,92,49,28,78,75,22,13,19,13,8,44,35
   65 00000FA4         
   66 00000FA4                 END
Command Line: --debug --xref --apcs=interwork --depend=.\bubblesort.d -o.\bubbl
esort.o -IC:\Keil\ARM\RV31\INC -IC:\Keil\ARM\CMSIS\Include -IC:\Keil\ARM\Inc\Ph
ilips --predefine="__EVAL SETA 1" --predefine="__MICROLIB SETA 1" --predefine="
NO_CLOCK_SETUP SETA 1" --predefine="NO_EMC_SETUP SETA 1" --predefine="RAM_INTVE
C SETA 1" --predefine="RAM_MODE SETA 1" --predefine="REMAP SETA 1" --list=.\bub
blesort.lst BubbleSort.s



ARM Macro Assembler    Page 1 Alphabetic symbol ordering
Relocatable symbols

BubbleSort 00000000

Symbol: BubbleSort
   Definitions
      At line 1 in file BubbleSort.s
   Uses
      None
Comment: BubbleSort unused
do 00000018

Symbol: do
   Definitions
      At line 17 in file BubbleSort.s
   Uses
      At line 40 in file BubbleSort.s
Comment: do used once
for 00000020

Symbol: for
   Definitions
      At line 20 in file BubbleSort.s
   Uses
      At line 32 in file BubbleSort.s
      At line 37 in file BubbleSort.s

start 00000000

Symbol: start
   Definitions
      At line 6 in file BubbleSort.s
   Uses
      At line 3 in file BubbleSort.s
Comment: start used once
stop 00000058

Symbol: stop
   Definitions
      At line 41 in file BubbleSort.s
   Uses
      At line 16 in file BubbleSort.s
      At line 41 in file BubbleSort.s

swap 0000005C

Symbol: swap
   Definitions
      At line 47 in file BubbleSort.s
   Uses
      At line 35 in file BubbleSort.s
Comment: swap used once
while 00000050

Symbol: while
   Definitions
      At line 38 in file BubbleSort.s
   Uses
      At line 26 in file BubbleSort.s
Comment: while used once
7 symbols



ARM Macro Assembler    Page 1 Alphabetic symbol ordering
Relocatable symbols

TestArray 00000000

Symbol: TestArray
   Definitions
      At line 56 in file BubbleSort.s
   Uses
      None
Comment: TestArray unused
array 00000004

Symbol: array
   Definitions
      At line 62 in file BubbleSort.s
   Uses
      At line 7 in file BubbleSort.s
Comment: array used once
arrayN 00000000

Symbol: arrayN
   Definitions
      At line 59 in file BubbleSort.s
   Uses
      At line 8 in file BubbleSort.s
Comment: arrayN used once
3 symbols



ARM Macro Assembler    Page 1 Alphabetic symbol ordering
External symbols

main 00000000

Symbol: main
   Definitions
      At line 2 in file BubbleSort.s
   Uses
      None
Comment: main unused
1 symbol
350 symbols in table
